; Function Attrs: nofree norecurse nosync nounwind memory(readwrite, inaccessiblemem: none) uwtable
define internal noundef i32 @remap_packed8_nearest_slice(ptr noundef readonly captures(none) %0, ptr noundef readonly captures(none) %1, i32 noundef %2, i32 noundef %3) #4 {
  %5 = load ptr, ptr %1, align 8, !tbaa !48
  %6 = getelementptr inbounds nuw i8, ptr %1, i64 24
  %7 = load ptr, ptr %6, align 8, !tbaa !53
  %8 = getelementptr inbounds nuw i8, ptr %7, i64 108
  %9 = load i32, ptr %8, align 4, !tbaa !54
  %10 = mul nsw i32 %9, %2
  %11 = sdiv i32 %10, %3
  %12 = add nsw i32 %2, 1
  %13 = mul nsw i32 %9, %12
  %14 = sdiv i32 %13, %3
  %15 = getelementptr inbounds nuw i8, ptr %5, i64 64
  %16 = load i32, ptr %15, align 8, !tbaa !45
  %17 = load ptr, ptr %5, align 8, !tbaa !61
  %18 = getelementptr inbounds nuw i8, ptr %1, i64 40
  %19 = load i32, ptr %18, align 8, !tbaa !69
  %20 = icmp slt i32 %11, %14
  br i1 %20, label %.preheader73.lr.ph, label %._crit_edge81

.preheader73.lr.ph:                               ; preds = %4
  %21 = getelementptr inbounds nuw i8, ptr %1, i64 16
  %22 = load ptr, ptr %21, align 8, !tbaa !52
  %23 = getelementptr inbounds nuw i8, ptr %22, i64 64
  %24 = load i32, ptr %23, align 8, !tbaa !45
  %25 = sdiv i32 %24, 2
  %26 = getelementptr inbounds nuw i8, ptr %1, i64 8
  %27 = load ptr, ptr %26, align 8, !tbaa !51
  %28 = getelementptr inbounds nuw i8, ptr %27, i64 64
  %29 = load i32, ptr %28, align 8, !tbaa !45
  %30 = sdiv i32 %29, 2
  %31 = getelementptr inbounds nuw i8, ptr %7, i64 64
  %32 = load i32, ptr %31, align 8, !tbaa !45
  %33 = getelementptr inbounds nuw i8, ptr %0, i64 72
  %34 = load ptr, ptr %33, align 8, !tbaa !4
  %35 = getelementptr inbounds nuw i8, ptr %7, i64 104
  %36 = getelementptr inbounds nuw i8, ptr %1, i64 36
  %37 = getelementptr inbounds nuw i8, ptr %5, i64 108
  %38 = getelementptr inbounds nuw i8, ptr %5, i64 104
  %39 = getelementptr inbounds nuw i8, ptr %34, i64 28
  %40 = sext i32 %32 to i64
  %41 = sext i32 %30 to i64
  %42 = sext i32 %25 to i64
  %43 = load i32, ptr %35, align 8, !tbaa !60
  %44 = icmp sgt i32 %43, 0
  br i1 %44, label %.preheader73.preheader, label %._crit_edge81

.preheader73.preheader:                           ; preds = %.preheader73.lr.ph
  %45 = load ptr, ptr %7, align 8, !tbaa !61
  %46 = mul nsw i32 %32, %11
  %47 = sext i32 %46 to i64
  %48 = getelementptr inbounds i8, ptr %45, i64 %47
  %49 = load ptr, ptr %27, align 8, !tbaa !61
  %50 = mul nsw i32 %30, %11
  %51 = sext i32 %50 to i64
  %52 = getelementptr inbounds i16, ptr %49, i64 %51
  %53 = load ptr, ptr %22, align 8, !tbaa !61
  %54 = mul nsw i32 %25, %11
  %55 = sext i32 %54 to i64
  %56 = getelementptr inbounds i16, ptr %53, i64 %55
  %57 = sext i32 %19 to i64
  br label %.preheader73

.preheader73:                                     ; preds = %.preheader73.preheader, %._crit_edge76
  %58 = phi i32 [ %100, %._crit_edge76 ], [ %43, %.preheader73.preheader ]
  %59 = phi i32 [ %101, %._crit_edge76 ], [ %43, %.preheader73.preheader ]
  %.080 = phi i32 [ %105, %._crit_edge76 ], [ %11, %.preheader73.preheader ]
  %.06879 = phi ptr [ %102, %._crit_edge76 ], [ %48, %.preheader73.preheader ]
  %.06978 = phi ptr [ %104, %._crit_edge76 ], [ %56, %.preheader73.preheader ]
  %.07077 = phi ptr [ %103, %._crit_edge76 ], [ %52, %.preheader73.preheader ]
  %60 = icmp sgt i32 %59, 0
  br i1 %60, label %.preheader.lr.ph, label %._crit_edge76

.preheader.lr.ph:                                 ; preds = %.preheader73
  %61 = load i32, ptr %36, align 4, !tbaa !70
  %62 = icmp sgt i32 %61, 0
  br i1 %62, label %.preheader, label %._crit_edge76

.preheader:                                       ; preds = %.preheader.lr.ph, %._crit_edge
  %63 = phi i32 [ %96, %._crit_edge ], [ %58, %.preheader.lr.ph ]
  %64 = phi i32 [ %97, %._crit_edge ], [ %61, %.preheader.lr.ph ]
  %indvars.iv85 = phi i64 [ %indvars.iv.next86, %._crit_edge ], [ 0, %.preheader.lr.ph ]
  %65 = icmp sgt i32 %64, 0
  br i1 %65, label %.lr.ph, label %._crit_edge

.lr.ph:                                           ; preds = %.preheader
  %66 = getelementptr inbounds nuw i16, ptr %.06978, i64 %indvars.iv85
  %67 = getelementptr inbounds nuw i16, ptr %.07077, i64 %indvars.iv85
  %68 = mul nsw i64 %indvars.iv85, %57
  %invariant.gep89.sink = getelementptr i8, ptr %.06879, i64 %68
  br label %69

69:                                               ; preds = %.lr.ph, %92
  %indvars.iv = phi i64 [ 0, %.lr.ph ], [ %indvars.iv.next, %92 ]
  %70 = load i16, ptr %66, align 2, !tbaa !65
  %71 = zext i16 %70 to i32
  %72 = load i32, ptr %37, align 4, !tbaa !54
  %73 = icmp sgt i32 %72, %71
  br i1 %73, label %74, label %88

74:                                               ; preds = %69
  %75 = load i16, ptr %67, align 2, !tbaa !65
  %76 = zext i16 %75 to i32
  %77 = load i32, ptr %38, align 8, !tbaa !60
  %78 = icmp sgt i32 %77, %76
  br i1 %78, label %79, label %88

79:                                               ; preds = %74
  %80 = mul nsw i32 %16, %71
  %81 = mul nsw i32 %19, %76
  %82 = trunc nuw nsw i64 %indvars.iv to i32
  %83 = add i32 %80, %82
  %84 = add i32 %83, %81
  %85 = sext i32 %84 to i64
  %86 = getelementptr inbounds i8, ptr %17, i64 %85
  %87 = load i8, ptr %86, align 1, !tbaa !44
  br label %92

88:                                               ; preds = %74, %69
  %89 = getelementptr inbounds nuw [4 x i32], ptr %39, i64 0, i64 %indvars.iv
  %90 = load i32, ptr %89, align 4, !tbaa !45
  %91 = trunc i32 %90 to i8
  br label %92

92:                                               ; preds = %79, %88
  %.sink = phi i8 [ %87, %79 ], [ %91, %88 ]
  %gep90 = getelementptr i8, ptr %invariant.gep89.sink, i64 %indvars.iv
  store i8 %.sink, ptr %gep90, align 1, !tbaa !44
  %indvars.iv.next = add nuw nsw i64 %indvars.iv, 1
  %93 = load i32, ptr %36, align 4, !tbaa !70
  %94 = sext i32 %93 to i64
  %95 = icmp slt i64 %indvars.iv.next, %94
  br i1 %95, label %69, label %._crit_edge.loopexit, !llvm.loop !71

._crit_edge.loopexit:                             ; preds = %92
  %.pre = load i32, ptr %35, align 8, !tbaa !60
  br label %._crit_edge

._crit_edge:                                      ; preds = %._crit_edge.loopexit, %.preheader
  %96 = phi i32 [ %.pre, %._crit_edge.loopexit ], [ %63, %.preheader ]
  %97 = phi i32 [ %93, %._crit_edge.loopexit ], [ %64, %.preheader ]
  %indvars.iv.next86 = add nuw nsw i64 %indvars.iv85, 1
  %98 = sext i32 %96 to i64
  %99 = icmp slt i64 %indvars.iv.next86, %98
  br i1 %99, label %.preheader, label %._crit_edge76, !llvm.loop !72

._crit_edge76:                                    ; preds = %._crit_edge, %.preheader.lr.ph, %.preheader73
  %100 = phi i32 [ %58, %.preheader73 ], [ %58, %.preheader.lr.ph ], [ %96, %._crit_edge ]
  %101 = phi i32 [ %59, %.preheader73 ], [ %59, %.preheader.lr.ph ], [ %96, %._crit_edge ]
  %102 = getelementptr inbounds i8, ptr %.06879, i64 %40
  %103 = getelementptr inbounds i16, ptr %.07077, i64 %41
  %104 = getelementptr inbounds i16, ptr %.06978, i64 %42
  %105 = add nsw i32 %.080, 1
  %exitcond.not = icmp eq i32 %105, %14
  br i1 %exitcond.not, label %._crit_edge81, label %.preheader73, !llvm.loop !73

._crit_edge81:                                    ; preds = %._crit_edge76, %.preheader73.lr.ph, %4
  ret i32 0
}